target datalayout = "e-m:e-p270:32:32-p271:32:32-p272:64:64-i64:64-i128:128-f80:128-n8:16:32:64-S128"
target triple = "x86_64-pc-linux-gnu"

%struct.expert_field = type { i32, i32 }

@ei_q931_invalid_length = internal global %struct.expert_field zeroinitializer, align 4
@.str.907 = private unnamed_addr constant [40 x i8] c"%s goes past end of information element\00", align 1
@.str.908 = private unnamed_addr constant [23 x i8] c"%s isn't 3 octets long\00", align 1

; Function Attrs: null_pointer_is_valid sspstrong uwtable
define internal i32 @dissect_q931_uint16_value(ptr noundef %0, ptr noundef %1, i32 noundef %2, i32 noundef %3, ptr noundef %4, ptr noundef %5, i32 noundef %6) #0 {
  %8 = alloca i32, align 4
  %9 = alloca ptr, align 8
  %10 = alloca ptr, align 8
  %11 = alloca i32, align 4
  %12 = alloca i32, align 4
  %13 = alloca ptr, align 8
  %14 = alloca ptr, align 8
  %15 = alloca i32, align 4
  %16 = alloca i8, align 1
  %17 = alloca i16, align 2
  %18 = alloca i32, align 4
  %19 = alloca i32, align 4
  store ptr %0, ptr %9, align 8
  store ptr %1, ptr %10, align 8
  store i32 %2, ptr %11, align 4
  store i32 %3, ptr %12, align 4
  store ptr %4, ptr %13, align 8
  store ptr %5, ptr %14, align 8
  store i32 %6, ptr %15, align 4
  call void @llvm.lifetime.start.p0(i64 1, ptr %16) #8
  call void @llvm.lifetime.start.p0(i64 2, ptr %17) #8
  call void @llvm.lifetime.start.p0(i64 4, ptr %18) #8
  store i32 0, ptr %18, align 4
  %20 = load ptr, ptr %9, align 8
  %21 = load i32, ptr %11, align 4
  %22 = call zeroext i8 @tvb_get_uint8(ptr noundef %20, i32 noundef %21)
  store i8 %22, ptr %16, align 1
  %23 = load i8, ptr %16, align 1
  %24 = zext i8 %23 to i32
  %25 = and i32 %24, 128
  %26 = icmp ne i32 %25, 0
  br i1 %26, label %27, label %28

27:                                               ; preds = %7
  br label %106

28:                                               ; preds = %7
  %29 = load i8, ptr %16, align 1
  %30 = zext i8 %29 to i32
  %31 = and i32 %30, 3
  %32 = shl i32 %31, 14
  %33 = trunc i32 %32 to i16
  store i16 %33, ptr %17, align 2
  %34 = load i32, ptr %11, align 4
  %35 = add i32 %34, 1
  store i32 %35, ptr %11, align 4
  %36 = load i32, ptr %12, align 4
  %37 = sub i32 %36, 1
  store i32 %37, ptr %12, align 4
  %38 = load i32, ptr %18, align 4
  %39 = add i32 %38, 1
  store i32 %39, ptr %18, align 4
  %40 = load i32, ptr %12, align 4
  %41 = icmp eq i32 %40, 0
  br i1 %41, label %42, label %43

42:                                               ; preds = %28
  br label %100

43:                                               ; preds = %28
  %44 = load ptr, ptr %9, align 8
  %45 = load i32, ptr %11, align 4
  %46 = call zeroext i8 @tvb_get_uint8(ptr noundef %44, i32 noundef %45)
  store i8 %46, ptr %16, align 1
  %47 = load i8, ptr %16, align 1
  %48 = zext i8 %47 to i32
  %49 = and i32 %48, 128
  %50 = icmp ne i32 %49, 0
  br i1 %50, label %51, label %52

51:                                               ; preds = %43
  br label %106

52:                                               ; preds = %43
  %53 = load i8, ptr %16, align 1
  %54 = zext i8 %53 to i32
  %55 = and i32 %54, 127
  %56 = shl i32 %55, 7
  %57 = load i16, ptr %17, align 2
  %58 = zext i16 %57 to i32
  %59 = or i32 %58, %56
  %60 = trunc i32 %59 to i16
  store i16 %60, ptr %17, align 2
  %61 = load i32, ptr %11, align 4
  %62 = add i32 %61, 1
  store i32 %62, ptr %11, align 4
  %63 = load i32, ptr %12, align 4
  %64 = sub i32 %63, 1
  store i32 %64, ptr %12, align 4
  %65 = load i32, ptr %18, align 4
  %66 = add i32 %65, 1
  store i32 %66, ptr %18, align 4
  %67 = load i32, ptr %12, align 4
  %68 = icmp eq i32 %67, 0
  br i1 %68, label %69, label %70

69:                                               ; preds = %52
  br label %100

70:                                               ; preds = %52
  %71 = load ptr, ptr %9, align 8
  %72 = load i32, ptr %11, align 4
  %73 = call zeroext i8 @tvb_get_uint8(ptr noundef %71, i32 noundef %72)
  store i8 %73, ptr %16, align 1
  %74 = load i8, ptr %16, align 1
  %75 = zext i8 %74 to i32
  %76 = and i32 %75, 128
  %77 = icmp ne i32 %76, 0
  br i1 %77, label %79, label %78

78:                                               ; preds = %70
  br label %106

79:                                               ; preds = %70
  %80 = load i8, ptr %16, align 1
  %81 = zext i8 %80 to i32
  %82 = and i32 %81, 127
  %83 = load i16, ptr %17, align 2
  %84 = zext i16 %83 to i32
  %85 = or i32 %84, %82
  %86 = trunc i32 %85 to i16
  store i16 %86, ptr %17, align 2
  %87 = load i32, ptr %11, align 4
  %88 = add i32 %87, 1
  store i32 %88, ptr %11, align 4
  %89 = load i32, ptr %18, align 4
  %90 = add i32 %89, 1
  store i32 %90, ptr %18, align 4
  %91 = load ptr, ptr %13, align 8
  %92 = load i32, ptr %15, align 4
  %93 = load ptr, ptr %9, align 8
  %94 = load i32, ptr %11, align 4
  %95 = load i32, ptr %18, align 4
  %96 = load i16, ptr %17, align 2
  %97 = zext i16 %96 to i32
  %98 = call ptr @proto_tree_add_uint(ptr noundef %91, i32 noundef %92, ptr noundef %93, i32 noundef %94, i32 noundef %95, i32 noundef %97)
  %99 = load i32, ptr %18, align 4
  store i32 %99, ptr %8, align 4
  store i32 1, ptr %19, align 4
  br label %112

100:                                              ; preds = %69, %42
  %101 = load ptr, ptr %10, align 8
  %102 = load ptr, ptr %14, align 8
  %103 = load i32, ptr %15, align 4
  %104 = call ptr @proto_registrar_get_name(i32 noundef %103)
  %105 = call ptr (ptr, ptr, ptr, ptr, ...) @expert_add_info_format(ptr noundef %101, ptr noundef %102, ptr noundef @ei_q931_invalid_length, ptr noundef @.str.907, ptr noundef %104)
  store i32 -1, ptr %8, align 4
  store i32 1, ptr %19, align 4
  br label %112

106:                                              ; preds = %78, %51, %27
  %107 = load ptr, ptr %10, align 8
  %108 = load ptr, ptr %14, align 8
  %109 = load i32, ptr %15, align 4
  %110 = call ptr @proto_registrar_get_name(i32 noundef %109)
  %111 = call ptr (ptr, ptr, ptr, ptr, ...) @expert_add_info_format(ptr noundef %107, ptr noundef %108, ptr noundef @ei_q931_invalid_length, ptr noundef @.str.908, ptr noundef %110)
  store i32 -1, ptr %8, align 4
  store i32 1, ptr %19, align 4
  br label %112

112:                                              ; preds = %106, %100, %79
  call void @llvm.lifetime.end.p0(i64 4, ptr %18) #8
  call void @llvm.lifetime.end.p0(i64 2, ptr %17) #8
  call void @llvm.lifetime.end.p0(i64 1, ptr %16) #8
  %113 = load i32, ptr %8, align 4
  ret i32 %113
}