; Function Attrs: null_pointer_is_valid sspstrong uwtable
define internal fastcc range(i32 -1, 4) i32 @dissect_q931_uint16_value(ptr noundef %0, ptr noundef %1, i32 noundef %2, i32 noundef range(i32 -5, 256) %3, ptr noundef %4, ptr noundef %5, i32 noundef %6) unnamed_addr #0 {
  %8 = tail call zeroext i8 @tvb_get_uint8(ptr noundef %0, i32 noundef %2)
  %.not = icmp sgt i8 %8, -1
  br i1 %.not, label %9, label %32

9:                                                ; preds = %7
  %10 = zext nneg i8 %8 to i32
  %11 = shl nuw nsw i32 %10, 14
  %12 = icmp eq i32 %3, 1
  br i1 %12, label %29, label %13

13:                                               ; preds = %9
  %14 = add i32 %2, 1
  %15 = tail call zeroext i8 @tvb_get_uint8(ptr noundef %0, i32 noundef %14)
  %.not38 = icmp sgt i8 %15, -1
  br i1 %.not38, label %16, label %32

16:                                               ; preds = %13
  %17 = zext nneg i8 %15 to i32
  %18 = shl nuw nsw i32 %17, 7
  %19 = icmp eq i32 %3, 2
  br i1 %19, label %29, label %20

20:                                               ; preds = %16
  %21 = add i32 %2, 2
  %22 = tail call zeroext i8 @tvb_get_uint8(ptr noundef %0, i32 noundef %21)
  %.not39 = icmp sgt i8 %22, -1
  br i1 %.not39, label %32, label %23

23:                                               ; preds = %20
  %24 = and i8 %22, 127
  %25 = zext nneg i8 %24 to i32
  %26 = add i32 %2, 3
  %.masked40 = and i32 %11, 49152
  %.masked = or disjoint i32 %18, %.masked40
  %27 = or disjoint i32 %.masked, %25
  %28 = tail call ptr @proto_tree_add_uint(ptr noundef %4, i32 noundef %6, ptr noundef %0, i32 noundef %26, i32 noundef 3, i32 noundef %27)
  br label %35

29:                                               ; preds = %16, %9
  %30 = tail call ptr @proto_registrar_get_name(i32 noundef %6)
  %31 = tail call ptr (ptr, ptr, ptr, ptr, ...) @expert_add_info_format(ptr noundef %1, ptr noundef %5, ptr noundef nonnull @ei_q931_invalid_length, ptr noundef nonnull @.str.907, ptr noundef %30)
  br label %35

32:                                               ; preds = %20, %13, %7
  %33 = tail call ptr @proto_registrar_get_name(i32 noundef %6)
  %34 = tail call ptr (ptr, ptr, ptr, ptr, ...) @expert_add_info_format(ptr noundef %1, ptr noundef %5, ptr noundef nonnull @ei_q931_invalid_length, ptr noundef nonnull @.str.908, ptr noundef %33)
  br label %35

35:                                               ; preds = %32, %29, %23
  %.0 = phi i32 [ -1, %32 ], [ -1, %29 ], [ 3, %23 ]
  ret i32 %.0
}